; Function Attrs: null_pointer_is_valid sspstrong uwtable
define internal fastcc ptr @get_packet_data(ptr noundef %0) unnamed_addr #0 {
  %2 = tail call ptr @find_or_create_conversation(ptr noundef %0)
  %3 = load i32, ptr @proto_ipmi, align 4
  %4 = tail call ptr @conversation_get_proto_data(ptr noundef %2, i32 noundef %3)
  %.not = icmp eq ptr %4, null
  br i1 %.not, label %5, label %14

5:                                                ; preds = %1
  %6 = tail call ptr @wmem_file_scope()
  %7 = tail call noalias dereferenceable_or_null(56) ptr @wmem_alloc0(ptr noundef %6, i64 noundef 56) #14
  %8 = tail call ptr @wmem_file_scope()
  %9 = tail call noalias ptr @wmem_tree_new(ptr noundef %8)
  store ptr %9, ptr %7, align 8
  %10 = tail call ptr @wmem_file_scope()
  %11 = tail call noalias ptr @wmem_list_new(ptr noundef %10)
  %12 = getelementptr inbounds nuw i8, ptr %7, i64 8
  store ptr %11, ptr %12, align 8
  %13 = load i32, ptr @proto_ipmi, align 4
  tail call void @conversation_add_proto_data(ptr noundef %2, i32 noundef %13, ptr noundef %7)
  br label %14

14:                                               ; preds = %5, %1
  %.0 = phi ptr [ %4, %1 ], [ %7, %5 ]
  %15 = getelementptr inbounds nuw i8, ptr %0, i64 20
  %16 = load i32, ptr %15, align 4
  %17 = getelementptr inbounds nuw i8, ptr %.0, i64 16
  %18 = load i32, ptr %17, align 8
  %.not13 = icmp eq i32 %16, %18
  br i1 %.not13, label %22, label %19

19:                                               ; preds = %14
  %20 = getelementptr inbounds nuw i8, ptr %.0, i64 32
  store i8 0, ptr %20, align 8
  %21 = getelementptr inbounds nuw i8, ptr %.0, i64 33
  store i8 0, ptr %21, align 1
  br label %22

22:                                               ; preds = %19, %14
  ret ptr %.0
}